target datalayout = "e-m:e-p270:32:32-p271:32:32-p272:64:64-i64:64-i128:128-f80:128-n8:16:32:64-S128"
target triple = "x86_64-pc-linux-gnu"

; Function Attrs: null_pointer_is_valid sspstrong uwtable
define internal zeroext i1 @dissect_mms_heur(ptr noundef %0, ptr noundef %1, ptr noundef %2, ptr noundef %3) #0 {
  %5 = alloca i1, align 1
  %6 = alloca ptr, align 8
  %7 = alloca ptr, align 8
  %8 = alloca ptr, align 8
  %9 = alloca ptr, align 8
  %10 = alloca i32, align 4
  %11 = alloca i32, align 4
  %12 = alloca i32, align 4
  %13 = alloca i32, align 4
  %14 = alloca i8, align 1
  %15 = alloca i8, align 1
  %16 = alloca i32, align 4
  %17 = alloca i32, align 4
  store ptr %0, ptr %6, align 8
  store ptr %1, ptr %7, align 8
  store ptr %2, ptr %8, align 8
  store ptr %3, ptr %9, align 8
  call void @llvm.lifetime.start.p0(i64 4, ptr %10) #8
  store i32 0, ptr %10, align 4
  call void @llvm.lifetime.start.p0(i64 4, ptr %11) #8
  store i32 0, ptr %11, align 4
  call void @llvm.lifetime.start.p0(i64 4, ptr %12) #8
  call void @llvm.lifetime.start.p0(i64 4, ptr %13) #8
  store i32 0, ptr %13, align 4
  call void @llvm.lifetime.start.p0(i64 1, ptr %14) #8
  call void @llvm.lifetime.start.p0(i64 1, ptr %15) #8
  call void @llvm.lifetime.start.p0(i64 4, ptr %16) #8
  %18 = load ptr, ptr %6, align 8
  %19 = call zeroext i1 @tvb_bytes_exist(ptr noundef %18, i32 noundef 0, i32 noundef 2)
  br i1 %19, label %21, label %20

20:                                               ; preds = %4
  store i1 false, ptr %5, align 1
  store i32 1, ptr %17, align 4
  br label %59

21:                                               ; preds = %4
  %22 = load ptr, ptr %6, align 8
  %23 = load i32, ptr %10, align 4
  %24 = call i32 @get_ber_identifier(ptr noundef %22, i32 noundef %23, ptr noundef %14, ptr noundef %15, ptr noundef %16)
  store i32 %24, ptr %10, align 4
  %25 = load i8, ptr %14, align 1
  %26 = sext i8 %25 to i32
  %27 = icmp ne i32 %26, 2
  br i1 %27, label %28, label %29

28:                                               ; preds = %21
  store i1 false, ptr %5, align 1
  store i32 1, ptr %17, align 4
  br label %59

29:                                               ; preds = %21
  %30 = load i32, ptr %16, align 4
  %31 = call ptr @try_val_to_str_idx(i32 noundef %30, ptr noundef @mms_MMSpdu_vals, ptr noundef %13)
  %32 = load i32, ptr %13, align 4
  %33 = icmp eq i32 %32, -1
  br i1 %33, label %34, label %35

34:                                               ; preds = %29
  store i1 false, ptr %5, align 1
  store i32 1, ptr %17, align 4
  br label %59

35:                                               ; preds = %29
  %36 = load ptr, ptr %6, align 8
  %37 = load i32, ptr %10, align 4
  %38 = call zeroext i8 @tvb_get_uint8(ptr noundef %36, i32 noundef %37)
  %39 = zext i8 %38 to i32
  %40 = and i32 %39, 127
  store i32 %40, ptr %12, align 4
  %41 = load i32, ptr %12, align 4
  %42 = icmp eq i32 %41, 0
  br i1 %42, label %43, label %44

43:                                               ; preds = %35
  store i1 false, ptr %5, align 1
  store i32 1, ptr %17, align 4
  br label %59

44:                                               ; preds = %35
  %45 = load ptr, ptr %6, align 8
  %46 = load i32, ptr %10, align 4
  %47 = call i32 @get_ber_length(ptr noundef %45, i32 noundef %46, ptr noundef %11, ptr noundef null)
  store i32 %47, ptr %10, align 4
  %48 = load ptr, ptr %6, align 8
  %49 = load i32, ptr %10, align 4
  %50 = load i32, ptr %11, align 4
  %51 = call zeroext i1 @tvb_bytes_exist(ptr noundef %48, i32 noundef %49, i32 noundef %50)
  br i1 %51, label %53, label %52

52:                                               ; preds = %44
  store i1 false, ptr %5, align 1
  store i32 1, ptr %17, align 4
  br label %59

53:                                               ; preds = %44
  %54 = load ptr, ptr %6, align 8
  %55 = load ptr, ptr %7, align 8
  %56 = load ptr, ptr %8, align 8
  %57 = load ptr, ptr %9, align 8
  %58 = call i32 @dissect_mms(ptr noundef %54, ptr noundef %55, ptr noundef %56, ptr noundef %57)
  store i1 true, ptr %5, align 1
  store i32 1, ptr %17, align 4
  br label %59

59:                                               ; preds = %53, %52, %43, %34, %28, %20
  call void @llvm.lifetime.end.p0(i64 4, ptr %16) #8
  call void @llvm.lifetime.end.p0(i64 1, ptr %15) #8
  call void @llvm.lifetime.end.p0(i64 1, ptr %14) #8
  call void @llvm.lifetime.end.p0(i64 4, ptr %13) #8
  call void @llvm.lifetime.end.p0(i64 4, ptr %12) #8
  call void @llvm.lifetime.end.p0(i64 4, ptr %11) #8
  call void @llvm.lifetime.end.p0(i64 4, ptr %10) #8
  %60 = load i1, ptr %5, align 1
  ret i1 %60
}