; Function Attrs: null_pointer_is_valid sspstrong uwtable
define internal noundef zeroext i1 @dissect_mms_heur(ptr noundef %0, ptr noundef %1, ptr noundef %2, ptr readnone captures(none) %3) #0 {
  %5 = alloca i32, align 4
  %6 = alloca i32, align 4
  %7 = alloca i8, align 1
  %8 = alloca i8, align 1
  %9 = alloca i32, align 4
  call void @llvm.lifetime.start.p0(i64 4, ptr nonnull %5) #8
  store i32 0, ptr %5, align 4
  call void @llvm.lifetime.start.p0(i64 4, ptr nonnull %6) #8
  store i32 0, ptr %6, align 4
  call void @llvm.lifetime.start.p0(i64 1, ptr nonnull %7) #8
  call void @llvm.lifetime.start.p0(i64 1, ptr nonnull %8) #8
  call void @llvm.lifetime.start.p0(i64 4, ptr nonnull %9) #8
  %10 = tail call zeroext i1 @tvb_bytes_exist(ptr noundef %0, i32 noundef 0, i32 noundef 2)
  br i1 %10, label %11, label %29

11:                                               ; preds = %4
  %12 = call i32 @get_ber_identifier(ptr noundef %0, i32 noundef 0, ptr noundef nonnull %7, ptr noundef nonnull %8, ptr noundef nonnull %9)
  %13 = load i8, ptr %7, align 1
  %.not = icmp eq i8 %13, 2
  br i1 %.not, label %14, label %29

14:                                               ; preds = %11
  %15 = load i32, ptr %9, align 4
  %16 = call ptr @try_val_to_str_idx(i32 noundef %15, ptr noundef nonnull @mms_MMSpdu_vals, ptr noundef nonnull %6)
  %17 = load i32, ptr %6, align 4
  %18 = icmp eq i32 %17, -1
  br i1 %18, label %29, label %19

19:                                               ; preds = %14
  %20 = call zeroext i8 @tvb_get_uint8(ptr noundef %0, i32 noundef %12)
  %21 = and i8 %20, 127
  %22 = icmp eq i8 %21, 0
  br i1 %22, label %29, label %23

23:                                               ; preds = %19
  %24 = call i32 @get_ber_length(ptr noundef %0, i32 noundef %12, ptr noundef nonnull %5, ptr noundef null)
  %25 = load i32, ptr %5, align 4
  %26 = call zeroext i1 @tvb_bytes_exist(ptr noundef %0, i32 noundef %24, i32 noundef %25)
  br i1 %26, label %27, label %29

27:                                               ; preds = %23
  %28 = call i32 @dissect_mms(ptr noundef %0, ptr noundef %1, ptr noundef %2, ptr poison)
  br label %29

29:                                               ; preds = %23, %19, %14, %11, %4, %27
  %.0 = phi i1 [ true, %27 ], [ false, %4 ], [ false, %11 ], [ false, %14 ], [ false, %19 ], [ false, %23 ]
  call void @llvm.lifetime.end.p0(i64 4, ptr nonnull %9) #8
  call void @llvm.lifetime.end.p0(i64 1, ptr nonnull %8) #8
  call void @llvm.lifetime.end.p0(i64 1, ptr nonnull %7) #8
  call void @llvm.lifetime.end.p0(i64 4, ptr nonnull %6) #8
  call void @llvm.lifetime.end.p0(i64 4, ptr nonnull %5) #8
  ret i1 %.0
}